; Function Attrs: mustprogress uwtable
define void @_ZN6google8protobuf3Api12InternalSwapEPS1_(ptr noundef nonnull align 8 dereferenceable(128) %this, ptr noalias noundef %other) local_unnamed_addr #3 align 2 {
entry:
  %_internal_metadata_.i = getelementptr inbounds i8, ptr %this, i64 8
  %0 = load i64, ptr %_internal_metadata_.i, align 8
  %_internal_metadata_3 = getelementptr inbounds i8, ptr %other, i64 8
  %1 = load i64, ptr %_internal_metadata_3, align 8
  store i64 %1, ptr %_internal_metadata_.i, align 8
  store i64 %0, ptr %_internal_metadata_3, align 8
  %2 = getelementptr inbounds i8, ptr %this, i64 16
  %3 = getelementptr inbounds i8, ptr %other, i64 16
  %4 = load i32, ptr %2, align 8
  %5 = load i32, ptr %3, align 4
  store i32 %5, ptr %2, align 8
  store i32 %4, ptr %3, align 4
  %methods_ = getelementptr inbounds i8, ptr %this, i64 24
  %methods_7 = getelementptr inbounds i8, ptr %other, i64 24
  tail call void @_ZN6google8protobuf8internal7memswapILm16EEEvPcS3_(ptr noundef nonnull %methods_, ptr noundef nonnull %methods_7)
  %options_ = getelementptr inbounds i8, ptr %this, i64 48
  %options_8 = getelementptr inbounds i8, ptr %other, i64 48
  tail call void @_ZN6google8protobuf8internal7memswapILm16EEEvPcS3_(ptr noundef nonnull %options_, ptr noundef nonnull %options_8)
  %mixins_ = getelementptr inbounds i8, ptr %this, i64 72
  %mixins_9 = getelementptr inbounds i8, ptr %other, i64 72
  tail call void @_ZN6google8protobuf8internal7memswapILm16EEEvPcS3_(ptr noundef nonnull %mixins_, ptr noundef nonnull %mixins_9)
  %name_ = getelementptr inbounds i8, ptr %this, i64 96
  %name_10 = getelementptr inbounds i8, ptr %other, i64 96
  %6 = load <2 x ptr>, ptr %name_10, align 8
  %7 = load <2 x i64>, ptr %name_, align 8
  store <2 x i64> %7, ptr %name_10, align 8
  store <2 x ptr> %6, ptr %name_, align 8
  %source_context_ = getelementptr inbounds i8, ptr %this, i64 112
  %source_context_12 = getelementptr i8, ptr %other, i64 112
  tail call void @llvm.experimental.noalias.scope.decl(metadata !12)
  tail call void @llvm.experimental.noalias.scope.decl(metadata !15)
  br label %for.body.i.i

for.body.i.i:                                     ; preds = %for.body.i.i, %entry
  %__first2.addr.07.i.i = phi ptr [ %incdec.ptr1.i.i, %for.body.i.i ], [ %source_context_12, %entry ]
  %__first1.addr.06.i.idx.i = phi i64 [ %__first1.addr.06.i.add.i, %for.body.i.i ], [ 0, %entry ]
  %__first1.addr.06.i.ptr.i = getelementptr inbounds i8, ptr %source_context_, i64 %__first1.addr.06.i.idx.i
  %8 = load i8, ptr %__first1.addr.06.i.ptr.i, align 1, !alias.scope !12, !noalias !15
  %9 = load i8, ptr %__first2.addr.07.i.i, align 1, !alias.scope !15, !noalias !12
  store i8 %9, ptr %__first1.addr.06.i.ptr.i, align 1, !alias.scope !12, !noalias !15
  store i8 %8, ptr %__first2.addr.07.i.i, align 1, !alias.scope !15, !noalias !12
  %__first1.addr.06.i.add.i = add nuw nsw i64 %__first1.addr.06.i.idx.i, 1
  %incdec.ptr1.i.i = getelementptr inbounds i8, ptr %__first2.addr.07.i.i, i64 1
  %cmp.not.i.i = icmp eq i64 %__first1.addr.06.i.add.i, 12
  br i1 %cmp.not.i.i, label %_ZN6google8protobuf8internal7memswapILm12EEEvPcS3_.exit, label %for.body.i.i, !llvm.loop !17

_ZN6google8protobuf8internal7memswapILm12EEEvPcS3_.exit: ; preds = %for.body.i.i
  ret void
}